target datalayout = "e-m:e-p270:32:32-p271:32:32-p272:64:64-i64:64-i128:128-f80:128-n8:16:32:64-S128"
target triple = "x86_64-pc-linux-gnu"

%"class.clang::CallExpr" = type { %"class.clang::Expr", i32, %"class.clang::SourceLocation" }
%"class.clang::Expr" = type { %"class.clang::ValueStmt", %"class.clang::QualType" }
%"class.clang::ValueStmt" = type { %"class.clang::Stmt" }
%"class.clang::Stmt" = type { %union.anon }
%union.anon = type { %"class.clang::Stmt::PseudoObjectExprBitfields" }
%"class.clang::Stmt::PseudoObjectExprBitfields" = type { i64 }
%"class.clang::QualType" = type { %"class.llvm::PointerIntPair" }
%"class.llvm::PointerIntPair" = type { %"struct.llvm::detail::PunnedPointer" }
%"struct.llvm::detail::PunnedPointer" = type { [8 x i8] }
%"class.clang::SourceLocation" = type { i32 }
%"class.clang::Stmt::CXXOperatorCallExprBitfields" = type <{ i32, i8, [3 x i8] }>
%"class.clang::SourceRange" = type { %"class.clang::SourceLocation", %"class.clang::SourceLocation" }

; Function Attrs: mustprogress nounwind uwtable
define linkonce_odr hidden noundef ptr @_ZN5clang8CallExpr16getTrailingStmtsEv(ptr noundef nonnull align 8 dereferenceable(24) %0) #0 comdat align 2 {
  %2 = alloca ptr, align 8
  store ptr %0, ptr %2, align 8
  %3 = load ptr, ptr %2, align 8
  %4 = getelementptr inbounds nuw %"class.clang::Stmt", ptr %3, i32 0, i32 0
  %5 = load i32, ptr %4, align 8
  %6 = lshr i32 %5, 24
  %7 = sext i32 %6 to i64
  %8 = getelementptr inbounds i8, ptr %3, i64 %7
  ret ptr %8
}

; Function Attrs: mustprogress nounwind uwtable
define linkonce_odr hidden noundef i32 @_ZNK5clang8CallExpr13getNumPreArgsEv(ptr noundef nonnull align 8 dereferenceable(24) %0) #0 comdat align 2 {
  %2 = alloca ptr, align 8
  store ptr %0, ptr %2, align 8
  %3 = load ptr, ptr %2, align 8
  %4 = getelementptr inbounds nuw %"class.clang::Stmt", ptr %3, i32 0, i32 0
  %5 = load i32, ptr %4, align 8
  %6 = lshr i32 %5, 18
  %7 = and i32 %6, 1
  ret i32 %7
}

; Function Attrs: mustprogress nounwind uwtable
define linkonce_odr hidden noundef ptr @_ZNK5clang8CallExpr16getTrailingStmtsEv(ptr noundef nonnull align 8 dereferenceable(24) %0) #0 comdat align 2 {
  %2 = alloca ptr, align 8
  store ptr %0, ptr %2, align 8
  %3 = load ptr, ptr %2, align 8
  %4 = call noundef ptr @_ZN5clang8CallExpr16getTrailingStmtsEv(ptr noundef nonnull align 8 dereferenceable(24) %3)
  ret ptr %4
}

; Function Attrs: mustprogress nounwind uwtable
define linkonce_odr hidden noundef ptr @_ZNK5clang8CallExpr7getArgsEv(ptr noundef nonnull align 8 dereferenceable(24) %0) #0 comdat align 2 {
  %2 = alloca ptr, align 8
  store ptr %0, ptr %2, align 8
  %3 = load ptr, ptr %2, align 8
  %4 = call noundef ptr @_ZNK5clang8CallExpr16getTrailingStmtsEv(ptr noundef nonnull align 8 dereferenceable(24) %3)
  %5 = getelementptr inbounds ptr, ptr %4, i64 1
  %6 = call noundef i32 @_ZNK5clang8CallExpr13getNumPreArgsEv(ptr noundef nonnull align 8 dereferenceable(24) %3)
  %7 = zext i32 %6 to i64
  %8 = getelementptr inbounds ptr, ptr %5, i64 %7
  ret ptr %8
}

; Function Attrs: mustprogress nounwind uwtable
define linkonce_odr hidden void @_ZN5clang11SourceRangeC2ENS_14SourceLocationE(ptr noundef nonnull align 4 dereferenceable(8) %0, i32 %1) unnamed_addr #0 comdat align 2 {
  %3 = alloca %"class.clang::SourceLocation", align 4
  %4 = alloca ptr, align 8
  %5 = getelementptr inbounds nuw %"class.clang::SourceLocation", ptr %3, i32 0, i32 0
  store i32 %1, ptr %5, align 4
  store ptr %0, ptr %4, align 8
  %6 = load ptr, ptr %4, align 8
  %7 = getelementptr inbounds nuw %"class.clang::SourceRange", ptr %6, i32 0, i32 0
  call void @llvm.memcpy.p0.p0.i64(ptr align 4 %7, ptr align 4 %3, i64 4, i1 false)
  %8 = getelementptr inbounds nuw %"class.clang::SourceRange", ptr %6, i32 0, i32 1
  call void @llvm.memcpy.p0.p0.i64(ptr align 4 %8, ptr align 4 %3, i64 4, i1 false)
  ret void
}

; Function Attrs: mustprogress nounwind uwtable
define linkonce_odr hidden i32 @_ZNK5clang8CallExpr12getRParenLocEv(ptr noundef nonnull align 8 dereferenceable(24) %0) #0 comdat align 2 {
  %2 = alloca %"class.clang::SourceLocation", align 4
  %3 = alloca ptr, align 8
  store ptr %0, ptr %3, align 8
  %4 = load ptr, ptr %3, align 8
  %5 = getelementptr inbounds nuw %"class.clang::CallExpr", ptr %4, i32 0, i32 2
  call void @llvm.memcpy.p0.p0.i64(ptr align 4 %2, ptr align 4 %5, i64 4, i1 false)
  %6 = getelementptr inbounds nuw %"class.clang::SourceLocation", ptr %2, i32 0, i32 0
  %7 = load i32, ptr %6, align 4
  ret i32 %7
}

; Function Attrs: mustprogress nounwind uwtable
define linkonce_odr hidden void @_ZN5clang11SourceRangeC2ENS_14SourceLocationES1_(ptr noundef nonnull align 4 dereferenceable(8) %0, i32 %1, i32 %2) unnamed_addr #0 comdat align 2 {
  %4 = alloca %"class.clang::SourceLocation", align 4
  %5 = alloca %"class.clang::SourceLocation", align 4
  %6 = alloca ptr, align 8
  %7 = getelementptr inbounds nuw %"class.clang::SourceLocation", ptr %4, i32 0, i32 0
  store i32 %1, ptr %7, align 4
  %8 = getelementptr inbounds nuw %"class.clang::SourceLocation", ptr %5, i32 0, i32 0
  store i32 %2, ptr %8, align 4
  store ptr %0, ptr %6, align 8
  %9 = load ptr, ptr %6, align 8
  %10 = getelementptr inbounds nuw %"class.clang::SourceRange", ptr %9, i32 0, i32 0
  call void @llvm.memcpy.p0.p0.i64(ptr align 4 %10, ptr align 4 %4, i64 4, i1 false)
  %11 = getelementptr inbounds nuw %"class.clang::SourceRange", ptr %9, i32 0, i32 1
  call void @llvm.memcpy.p0.p0.i64(ptr align 4 %11, ptr align 4 %5, i64 4, i1 false)
  ret void
}

; Function Attrs: mustprogress nounwind uwtable
define linkonce_odr hidden noundef ptr @_ZNK5clang8CallExpr6getArgEj(ptr noundef nonnull align 8 dereferenceable(24) %0, i32 noundef %1) #0 comdat align 2 {
  %3 = alloca ptr, align 8
  %4 = alloca i32, align 4
  store ptr %0, ptr %3, align 8
  store i32 %1, ptr %4, align 4
  %5 = load ptr, ptr %3, align 8
  %6 = call noundef ptr @_ZNK5clang8CallExpr7getArgsEv(ptr noundef nonnull align 8 dereferenceable(24) %5)
  %7 = load i32, ptr %4, align 4
  %8 = zext i32 %7 to i64
  %9 = getelementptr inbounds ptr, ptr %6, i64 %8
  %10 = load ptr, ptr %9, align 8
  ret ptr %10
}

; Function Attrs: mustprogress nounwind uwtable
define linkonce_odr hidden i32 @_ZNK5clang19CXXOperatorCallExpr14getOperatorLocEv(ptr noundef nonnull align 8 dereferenceable(32) %0) #0 comdat align 2 {
  %2 = alloca %"class.clang::SourceLocation", align 4
  %3 = alloca ptr, align 8
  store ptr %0, ptr %3, align 8
  %4 = load ptr, ptr %3, align 8
  %5 = call i32 @_ZNK5clang8CallExpr12getRParenLocEv(ptr noundef nonnull align 8 dereferenceable(24) %4)
  %6 = getelementptr inbounds nuw %"class.clang::SourceLocation", ptr %2, i32 0, i32 0
  store i32 %5, ptr %6, align 4
  %7 = getelementptr inbounds nuw %"class.clang::SourceLocation", ptr %2, i32 0, i32 0
  %8 = load i32, ptr %7, align 4
  ret i32 %8
}

; Function Attrs: mustprogress nounwind uwtable
define linkonce_odr hidden noundef i32 @_ZNK5clang8CallExpr10getNumArgsEv(ptr noundef nonnull align 8 dereferenceable(24) %0) #0 comdat align 2 {
  %2 = alloca ptr, align 8
  store ptr %0, ptr %2, align 8
  %3 = load ptr, ptr %2, align 8
  %4 = getelementptr inbounds nuw %"class.clang::CallExpr", ptr %3, i32 0, i32 1
  %5 = load i32, ptr %4, align 8
  ret i32 %5
}

; Function Attrs: mustprogress nounwind uwtable
define linkonce_odr hidden noundef i32 @_ZNK5clang19CXXOperatorCallExpr11getOperatorEv(ptr noundef nonnull align 8 dereferenceable(32) %0) #0 comdat align 2 {
  %2 = alloca ptr, align 8
  store ptr %0, ptr %2, align 8
  %3 = load ptr, ptr %2, align 8
  %4 = getelementptr inbounds nuw %"class.clang::Stmt", ptr %3, i32 0, i32 0
  %5 = getelementptr inbounds nuw %"class.clang::Stmt::CXXOperatorCallExprBitfields", ptr %4, i32 0, i32 1
  %6 = load i8, ptr %5, align 4
  %7 = and i8 %6, 63
  %8 = zext i8 %7 to i32
  ret i32 %8
}

; Function Attrs: mustprogress nounwind willreturn memory(read) uwtable
define dso_local i64 @_ZNK5clang19CXXOperatorCallExpr18getSourceRangeImplEv(ptr noundef nonnull align 8 dereferenceable(32) %0) #5 align 2 {
  %2 = alloca %"class.clang::SourceRange", align 4
  %3 = alloca ptr, align 8
  %4 = alloca i32, align 4
  %5 = alloca %"class.clang::SourceLocation", align 4
  %6 = alloca %"class.clang::SourceLocation", align 4
  %7 = alloca %"class.clang::SourceLocation", align 4
  %8 = alloca %"class.clang::SourceLocation", align 4
  %9 = alloca %"class.clang::SourceLocation", align 4
  %10 = alloca %"class.clang::SourceLocation", align 4
  %11 = alloca %"class.clang::SourceLocation", align 4
  %12 = alloca %"class.clang::SourceLocation", align 4
  %13 = alloca %"class.clang::SourceLocation", align 4
  %14 = alloca %"class.clang::SourceLocation", align 4
  %15 = alloca %"class.clang::SourceLocation", align 4
  %16 = alloca %"class.clang::SourceLocation", align 4
  %17 = alloca %"class.clang::SourceLocation", align 4
  %18 = alloca %"class.clang::SourceLocation", align 4
  %19 = alloca %"class.clang::SourceLocation", align 4
  store ptr %0, ptr %3, align 8
  %20 = load ptr, ptr %3, align 8
  %21 = call noundef i32 @_ZNK5clang19CXXOperatorCallExpr11getOperatorEv(ptr noundef nonnull align 8 dereferenceable(32) %20)
  store i32 %21, ptr %4, align 4
  %22 = load i32, ptr %4, align 4
  %23 = icmp eq i32 %22, 37
  br i1 %23, label %27, label %24

24:                                               ; preds = %1
  %25 = load i32, ptr %4, align 4
  %26 = icmp eq i32 %25, 38
  br i1 %26, label %27, label %50

27:                                               ; preds = %24, %1
  %28 = call noundef i32 @_ZNK5clang8CallExpr10getNumArgsEv(ptr noundef nonnull align 8 dereferenceable(24) %20)
  %29 = icmp eq i32 %28, 1
  br i1 %29, label %30, label %40

30:                                               ; preds = %27
  %31 = call i32 @_ZNK5clang19CXXOperatorCallExpr14getOperatorLocEv(ptr noundef nonnull align 8 dereferenceable(32) %20)
  %32 = getelementptr inbounds nuw %"class.clang::SourceLocation", ptr %5, i32 0, i32 0
  store i32 %31, ptr %32, align 4
  %33 = call noundef ptr @_ZNK5clang8CallExpr6getArgEj(ptr noundef nonnull align 8 dereferenceable(24) %20, i32 noundef 0)
  %34 = call i32 @_ZNK5clang4Stmt9getEndLocEv(ptr noundef nonnull align 8 dereferenceable(8) %33) #10
  %35 = getelementptr inbounds nuw %"class.clang::SourceLocation", ptr %6, i32 0, i32 0
  store i32 %34, ptr %35, align 4
  %36 = getelementptr inbounds nuw %"class.clang::SourceLocation", ptr %5, i32 0, i32 0
  %37 = load i32, ptr %36, align 4
  %38 = getelementptr inbounds nuw %"class.clang::SourceLocation", ptr %6, i32 0, i32 0
  %39 = load i32, ptr %38, align 4
  call void @_ZN5clang11SourceRangeC2ENS_14SourceLocationES1_(ptr noundef nonnull align 4 dereferenceable(8) %2, i32 %37, i32 %39)
  br label %121

40:                                               ; preds = %27
  %41 = call noundef ptr @_ZNK5clang8CallExpr6getArgEj(ptr noundef nonnull align 8 dereferenceable(24) %20, i32 noundef 0)
  %42 = call i32 @_ZNK5clang4Stmt11getBeginLocEv(ptr noundef nonnull align 8 dereferenceable(8) %41) #10
  %43 = getelementptr inbounds nuw %"class.clang::SourceLocation", ptr %7, i32 0, i32 0
  store i32 %42, ptr %43, align 4
  %44 = call i32 @_ZNK5clang19CXXOperatorCallExpr14getOperatorLocEv(ptr noundef nonnull align 8 dereferenceable(32) %20)
  %45 = getelementptr inbounds nuw %"class.clang::SourceLocation", ptr %8, i32 0, i32 0
  store i32 %44, ptr %45, align 4
  %46 = getelementptr inbounds nuw %"class.clang::SourceLocation", ptr %7, i32 0, i32 0
  %47 = load i32, ptr %46, align 4
  %48 = getelementptr inbounds nuw %"class.clang::SourceLocation", ptr %8, i32 0, i32 0
  %49 = load i32, ptr %48, align 4
  call void @_ZN5clang11SourceRangeC2ENS_14SourceLocationES1_(ptr noundef nonnull align 4 dereferenceable(8) %2, i32 %47, i32 %49)
  br label %121

50:                                               ; preds = %24
  %51 = load i32, ptr %4, align 4
  %52 = icmp eq i32 %51, 41
  br i1 %52, label %53, label %63

53:                                               ; preds = %50
  %54 = call noundef ptr @_ZNK5clang8CallExpr6getArgEj(ptr noundef nonnull align 8 dereferenceable(24) %20, i32 noundef 0)
  %55 = call i32 @_ZNK5clang4Stmt11getBeginLocEv(ptr noundef nonnull align 8 dereferenceable(8) %54) #10
  %56 = getelementptr inbounds nuw %"class.clang::SourceLocation", ptr %9, i32 0, i32 0
  store i32 %55, ptr %56, align 4
  %57 = call i32 @_ZNK5clang19CXXOperatorCallExpr14getOperatorLocEv(ptr noundef nonnull align 8 dereferenceable(32) %20)
  %58 = getelementptr inbounds nuw %"class.clang::SourceLocation", ptr %10, i32 0, i32 0
  store i32 %57, ptr %58, align 4
  %59 = getelementptr inbounds nuw %"class.clang::SourceLocation", ptr %9, i32 0, i32 0
  %60 = load i32, ptr %59, align 4
  %61 = getelementptr inbounds nuw %"class.clang::SourceLocation", ptr %10, i32 0, i32 0
  %62 = load i32, ptr %61, align 4
  call void @_ZN5clang11SourceRangeC2ENS_14SourceLocationES1_(ptr noundef nonnull align 4 dereferenceable(8) %2, i32 %60, i32 %62)
  br label %121

63:                                               ; preds = %50
  %64 = load i32, ptr %4, align 4
  %65 = icmp eq i32 %64, 42
  br i1 %65, label %66, label %76

66:                                               ; preds = %63
  %67 = call noundef ptr @_ZNK5clang8CallExpr6getArgEj(ptr noundef nonnull align 8 dereferenceable(24) %20, i32 noundef 0)
  %68 = call i32 @_ZNK5clang4Stmt11getBeginLocEv(ptr noundef nonnull align 8 dereferenceable(8) %67) #10
  %69 = getelementptr inbounds nuw %"class.clang::SourceLocation", ptr %11, i32 0, i32 0
  store i32 %68, ptr %69, align 4
  %70 = call i32 @_ZNK5clang8CallExpr12getRParenLocEv(ptr noundef nonnull align 8 dereferenceable(24) %20)
  %71 = getelementptr inbounds nuw %"class.clang::SourceLocation", ptr %12, i32 0, i32 0
  store i32 %70, ptr %71, align 4
  %72 = getelementptr inbounds nuw %"class.clang::SourceLocation", ptr %11, i32 0, i32 0
  %73 = load i32, ptr %72, align 4
  %74 = getelementptr inbounds nuw %"class.clang::SourceLocation", ptr %12, i32 0, i32 0
  %75 = load i32, ptr %74, align 4
  call void @_ZN5clang11SourceRangeC2ENS_14SourceLocationES1_(ptr noundef nonnull align 4 dereferenceable(8) %2, i32 %73, i32 %75)
  br label %121

76:                                               ; preds = %63
  %77 = load i32, ptr %4, align 4
  %78 = icmp eq i32 %77, 43
  br i1 %78, label %79, label %89

79:                                               ; preds = %76
  %80 = call noundef ptr @_ZNK5clang8CallExpr6getArgEj(ptr noundef nonnull align 8 dereferenceable(24) %20, i32 noundef 0)
  %81 = call i32 @_ZNK5clang4Stmt11getBeginLocEv(ptr noundef nonnull align 8 dereferenceable(8) %80) #10
  %82 = getelementptr inbounds nuw %"class.clang::SourceLocation", ptr %13, i32 0, i32 0
  store i32 %81, ptr %82, align 4
  %83 = call i32 @_ZNK5clang8CallExpr12getRParenLocEv(ptr noundef nonnull align 8 dereferenceable(24) %20)
  %84 = getelementptr inbounds nuw %"class.clang::SourceLocation", ptr %14, i32 0, i32 0
  store i32 %83, ptr %84, align 4
  %85 = getelementptr inbounds nuw %"class.clang::SourceLocation", ptr %13, i32 0, i32 0
  %86 = load i32, ptr %85, align 4
  %87 = getelementptr inbounds nuw %"class.clang::SourceLocation", ptr %14, i32 0, i32 0
  %88 = load i32, ptr %87, align 4
  call void @_ZN5clang11SourceRangeC2ENS_14SourceLocationES1_(ptr noundef nonnull align 4 dereferenceable(8) %2, i32 %86, i32 %88)
  br label %121

89:                                               ; preds = %76
  %90 = call noundef i32 @_ZNK5clang8CallExpr10getNumArgsEv(ptr noundef nonnull align 8 dereferenceable(24) %20)
  %91 = icmp eq i32 %90, 1
  br i1 %91, label %92, label %102

92:                                               ; preds = %89
  %93 = call i32 @_ZNK5clang19CXXOperatorCallExpr14getOperatorLocEv(ptr noundef nonnull align 8 dereferenceable(32) %20)
  %94 = getelementptr inbounds nuw %"class.clang::SourceLocation", ptr %15, i32 0, i32 0
  store i32 %93, ptr %94, align 4
  %95 = call noundef ptr @_ZNK5clang8CallExpr6getArgEj(ptr noundef nonnull align 8 dereferenceable(24) %20, i32 noundef 0)
  %96 = call i32 @_ZNK5clang4Stmt9getEndLocEv(ptr noundef nonnull align 8 dereferenceable(8) %95) #10
  %97 = getelementptr inbounds nuw %"class.clang::SourceLocation", ptr %16, i32 0, i32 0
  store i32 %96, ptr %97, align 4
  %98 = getelementptr inbounds nuw %"class.clang::SourceLocation", ptr %15, i32 0, i32 0
  %99 = load i32, ptr %98, align 4
  %100 = getelementptr inbounds nuw %"class.clang::SourceLocation", ptr %16, i32 0, i32 0
  %101 = load i32, ptr %100, align 4
  call void @_ZN5clang11SourceRangeC2ENS_14SourceLocationES1_(ptr noundef nonnull align 4 dereferenceable(8) %2, i32 %99, i32 %101)
  br label %121

102:                                              ; preds = %89
  %103 = call noundef i32 @_ZNK5clang8CallExpr10getNumArgsEv(ptr noundef nonnull align 8 dereferenceable(24) %20)
  %104 = icmp eq i32 %103, 2
  br i1 %104, label %105, label %116

105:                                              ; preds = %102
  %106 = call noundef ptr @_ZNK5clang8CallExpr6getArgEj(ptr noundef nonnull align 8 dereferenceable(24) %20, i32 noundef 0)
  %107 = call i32 @_ZNK5clang4Stmt11getBeginLocEv(ptr noundef nonnull align 8 dereferenceable(8) %106) #10
  %108 = getelementptr inbounds nuw %"class.clang::SourceLocation", ptr %17, i32 0, i32 0
  store i32 %107, ptr %108, align 4
  %109 = call noundef ptr @_ZNK5clang8CallExpr6getArgEj(ptr noundef nonnull align 8 dereferenceable(24) %20, i32 noundef 1)
  %110 = call i32 @_ZNK5clang4Stmt9getEndLocEv(ptr noundef nonnull align 8 dereferenceable(8) %109) #10
  %111 = getelementptr inbounds nuw %"class.clang::SourceLocation", ptr %18, i32 0, i32 0
  store i32 %110, ptr %111, align 4
  %112 = getelementptr inbounds nuw %"class.clang::SourceLocation", ptr %17, i32 0, i32 0
  %113 = load i32, ptr %112, align 4
  %114 = getelementptr inbounds nuw %"class.clang::SourceLocation", ptr %18, i32 0, i32 0
  %115 = load i32, ptr %114, align 4
  call void @_ZN5clang11SourceRangeC2ENS_14SourceLocationES1_(ptr noundef nonnull align 4 dereferenceable(8) %2, i32 %113, i32 %115)
  br label %121

116:                                              ; preds = %102
  %117 = call i32 @_ZNK5clang19CXXOperatorCallExpr14getOperatorLocEv(ptr noundef nonnull align 8 dereferenceable(32) %20)
  %118 = getelementptr inbounds nuw %"class.clang::SourceLocation", ptr %19, i32 0, i32 0
  store i32 %117, ptr %118, align 4
  %119 = getelementptr inbounds nuw %"class.clang::SourceLocation", ptr %19, i32 0, i32 0
  %120 = load i32, ptr %119, align 4
  call void @_ZN5clang11SourceRangeC2ENS_14SourceLocationE(ptr noundef nonnull align 4 dereferenceable(8) %2, i32 %120)
  br label %121

121:                                              ; preds = %116, %105, %92, %79, %66, %53, %40, %30
  %122 = load i64, ptr %2, align 4
  ret i64 %122
}